target datalayout = "e-m:e-p270:32:32-p271:32:32-p272:64:64-i64:64-i128:128-f80:128-n8:16:32:64-S128"
target triple = "x86_64-pc-linux-gnu"

@fake_rand = internal global ptr null, align 8
@crv_len = internal global i64 0, align 8
@.str = private unnamed_addr constant [28 x i8] c"../openssl/test/ecdsatest.c\00", align 1
@.str.1 = private unnamed_addr constant [51 x i8] c"curves = OPENSSL_malloc(sizeof(*curves) * crv_len)\00", align 1
@curves = internal global ptr null, align 8
@.str.2 = private unnamed_addr constant [39 x i8] c"EC_get_builtin_curves(curves, crv_len)\00", align 1
@.str.3 = private unnamed_addr constant [19 x i8] c"test_builtin_as_ec\00", align 1
@.str.4 = private unnamed_addr constant [20 x i8] c"test_ecdsa_sig_NULL\00", align 1
@.str.5 = private unnamed_addr constant [20 x i8] c"test_builtin_as_sm2\00", align 1
@.str.6 = private unnamed_addr constant [12 x i8] c"x9_62_tests\00", align 1

; Function Attrs: nounwind uwtable
define dso_local i32 @setup_tests() #0 {
  %1 = alloca i32, align 4
  %2 = call ptr @fake_rand_start(ptr noundef null)
  store ptr %2, ptr @fake_rand, align 8, !tbaa !4
  %3 = load ptr, ptr @fake_rand, align 8, !tbaa !4
  %4 = icmp eq ptr %3, null
  br i1 %4, label %5, label %6

5:                                                ; preds = %0
  store i32 0, ptr %1, align 4
  br label %28

6:                                                ; preds = %0
  %7 = call i64 @EC_get_builtin_curves(ptr noundef null, i64 noundef 0)
  store i64 %7, ptr @crv_len, align 8, !tbaa !9
  %8 = load i64, ptr @crv_len, align 8, !tbaa !9
  %9 = mul i64 16, %8
  %10 = call noalias ptr @CRYPTO_malloc(i64 noundef %9, ptr noundef @.str, i32 noundef 402)
  store ptr %10, ptr @curves, align 8, !tbaa !11
  %11 = call i32 @test_ptr(ptr noundef @.str, i32 noundef 402, ptr noundef @.str.1, ptr noundef %10)
  %12 = icmp ne i32 %11, 0
  br i1 %12, label %13, label %21

13:                                               ; preds = %6
  %14 = load ptr, ptr @curves, align 8, !tbaa !11
  %15 = load i64, ptr @crv_len, align 8, !tbaa !9
  %16 = call i64 @EC_get_builtin_curves(ptr noundef %14, i64 noundef %15)
  %17 = icmp ne i64 %16, 0
  %18 = zext i1 %17 to i32
  %19 = call i32 @test_true(ptr noundef @.str, i32 noundef 403, ptr noundef @.str.2, i32 noundef %18)
  %20 = icmp ne i32 %19, 0
  br i1 %20, label %23, label %21

21:                                               ; preds = %13, %6
  %22 = load ptr, ptr @fake_rand, align 8, !tbaa !4
  call void @fake_rand_finish(ptr noundef %22)
  store i32 0, ptr %1, align 4
  br label %28

23:                                               ; preds = %13
  %24 = load i64, ptr @crv_len, align 8, !tbaa !9
  %25 = trunc i64 %24 to i32
  call void @add_all_tests(ptr noundef @.str.3, ptr noundef @test_builtin_as_ec, i32 noundef %25, i32 noundef 1)
  call void @add_test(ptr noundef @.str.4, ptr noundef @test_ecdsa_sig_NULL)
  %26 = load i64, ptr @crv_len, align 8, !tbaa !9
  %27 = trunc i64 %26 to i32
  call void @add_all_tests(ptr noundef @.str.5, ptr noundef @test_builtin_as_sm2, i32 noundef %27, i32 noundef 1)
  call void @add_all_tests(ptr noundef @.str.6, ptr noundef @x9_62_tests, i32 noundef 724, i32 noundef 1)
  store i32 1, ptr %1, align 4
  br label %28

28:                                               ; preds = %23, %21, %5
  %29 = load i32, ptr %1, align 4
  ret i32 %29
}