; Function Attrs: nounwind uwtable
define dso_local range(i32 0, 2) i32 @setup_tests() local_unnamed_addr #0 {
  %1 = tail call ptr @fake_rand_start(ptr noundef null) #5
  store ptr %1, ptr @fake_rand, align 8, !tbaa !4
  %2 = icmp eq ptr %1, null
  br i1 %2, label %22, label %3

3:                                                ; preds = %0
  %4 = tail call i64 @EC_get_builtin_curves(ptr noundef null, i64 noundef 0) #5
  store i64 %4, ptr @crv_len, align 8, !tbaa !9
  %5 = shl i64 %4, 4
  %6 = tail call noalias ptr @CRYPTO_malloc(i64 noundef %5, ptr noundef nonnull @.str, i32 noundef 402) #5
  store ptr %6, ptr @curves, align 8, !tbaa !11
  %7 = tail call i32 @test_ptr(ptr noundef nonnull @.str, i32 noundef 402, ptr noundef nonnull @.str.1, ptr noundef %6) #5
  %.not = icmp eq i32 %7, 0
  br i1 %.not, label %15, label %8

8:                                                ; preds = %3
  %9 = load ptr, ptr @curves, align 8, !tbaa !11
  %10 = load i64, ptr @crv_len, align 8, !tbaa !9
  %11 = tail call i64 @EC_get_builtin_curves(ptr noundef %9, i64 noundef %10) #5
  %12 = icmp ne i64 %11, 0
  %13 = zext i1 %12 to i32
  %14 = tail call i32 @test_true(ptr noundef nonnull @.str, i32 noundef 403, ptr noundef nonnull @.str.2, i32 noundef %13) #5
  %.not1 = icmp eq i32 %14, 0
  br i1 %.not1, label %15, label %17

15:                                               ; preds = %8, %3
  %16 = load ptr, ptr @fake_rand, align 8, !tbaa !4
  tail call void @fake_rand_finish(ptr noundef %16) #5
  br label %22

17:                                               ; preds = %8
  %18 = load i64, ptr @crv_len, align 8, !tbaa !9
  %19 = trunc i64 %18 to i32
  tail call void @add_all_tests(ptr noundef nonnull @.str.3, ptr noundef nonnull @test_builtin_as_ec, i32 noundef %19, i32 noundef 1) #5
  tail call void @add_test(ptr noundef nonnull @.str.4, ptr noundef nonnull @test_ecdsa_sig_NULL) #5
  %20 = load i64, ptr @crv_len, align 8, !tbaa !9
  %21 = trunc i64 %20 to i32
  tail call void @add_all_tests(ptr noundef nonnull @.str.5, ptr noundef nonnull @test_builtin_as_sm2, i32 noundef %21, i32 noundef 1) #5
  tail call void @add_all_tests(ptr noundef nonnull @.str.6, ptr noundef nonnull @x9_62_tests, i32 noundef 724, i32 noundef 1) #5
  br label %22

22:                                               ; preds = %0, %17, %15
  %.0 = phi i32 [ 1, %17 ], [ 0, %15 ], [ 0, %0 ]
  ret i32 %.0
}